target datalayout = "e-m:e-p270:32:32-p271:32:32-p272:64:64-i64:64-i128:128-f80:128-n8:16:32:64-S128"
target triple = "x86_64-pc-linux-gnu"

%class.dtNavMeshQuery = type { ptr, %"struct.dtNavMeshQuery::dtQueryData", ptr, ptr, ptr }
%"struct.dtNavMeshQuery::dtQueryData" = type { i32, ptr, float, i32, i32, [3 x float], [3 x float], ptr, i32, float }
%struct.dtPoly = type { i32, [6 x i16], [6 x i16], i16, i8, i8 }

@.str = private unnamed_addr constant [6 x i8] c"m_nav\00", align 1
@.str.1 = private unnamed_addr constant [148 x i8] c"generated/home/dtcxzyw/WorkSpace/Projects/compilers/llvm-opt-benchmark/bench/recastnavigation/recastnavigation/Detour/Source/DetourNavMeshQuery.cpp\00", align 1

; Function Attrs: mustprogress nounwind uwtable
define linkonce_odr noundef zeroext i8 @_ZNK6dtPoly7getTypeEv(ptr noundef nonnull align 4 dereferenceable(32) %0) #0 comdat align 2 {
  %2 = alloca ptr, align 8
  store ptr %0, ptr %2, align 8
  %3 = load ptr, ptr %2, align 8
  %4 = getelementptr inbounds %struct.dtPoly, ptr %3, i32 0, i32 5
  %5 = load i8, ptr %4, align 1
  %6 = zext i8 %5 to i32
  %7 = ashr i32 %6, 6
  %8 = trunc i32 %7 to i8
  ret i8 %8
}

; Function Attrs: mustprogress nounwind uwtable
define linkonce_odr noundef zeroext i1 @_Z14dtStatusFailedj(i32 noundef %0) #0 comdat {
  %2 = alloca i32, align 4
  store i32 %0, ptr %2, align 4
  %3 = load i32, ptr %2, align 4
  %4 = and i32 %3, -2147483648
  %5 = icmp ne i32 %4, 0
  ret i1 %5
}

; Function Attrs: mustprogress uwtable
define noundef i32 @_ZNK14dtNavMeshQuery15getPortalPointsEjjPfS0_RhS1_(ptr noundef nonnull align 8 dereferenceable(104) %0, i32 noundef %1, i32 noundef %2, ptr noundef %3, ptr noundef %4, ptr noundef nonnull align 1 dereferenceable(1) %5, ptr noundef nonnull align 1 dereferenceable(1) %6) #1 align 2 {
  %8 = alloca i32, align 4
  %9 = alloca ptr, align 8
  %10 = alloca i32, align 4
  %11 = alloca i32, align 4
  %12 = alloca ptr, align 8
  %13 = alloca ptr, align 8
  %14 = alloca ptr, align 8
  %15 = alloca ptr, align 8
  %16 = alloca ptr, align 8
  %17 = alloca ptr, align 8
  %18 = alloca ptr, align 8
  %19 = alloca ptr, align 8
  %20 = alloca ptr, align 8
  store ptr %0, ptr %9, align 8
  store i32 %1, ptr %10, align 4
  store i32 %2, ptr %11, align 4
  store ptr %3, ptr %12, align 8
  store ptr %4, ptr %13, align 8
  store ptr %5, ptr %14, align 8
  store ptr %6, ptr %15, align 8
  %21 = load ptr, ptr %9, align 8
  %22 = call noundef ptr @_Z21dtAssertFailGetCustomv()
  store ptr %22, ptr %16, align 8
  %23 = load ptr, ptr %16, align 8
  %24 = icmp eq ptr %23, null
  br i1 %24, label %25, label %26

25:                                               ; preds = %7
  br label %33

26:                                               ; preds = %7
  %27 = getelementptr inbounds %class.dtNavMeshQuery, ptr %21, i32 0, i32 0
  %28 = load ptr, ptr %27, align 8
  %29 = icmp ne ptr %28, null
  br i1 %29, label %32, label %30

30:                                               ; preds = %26
  %31 = load ptr, ptr %16, align 8
  call void %31(ptr noundef @.str, ptr noundef @.str.1, i32 noundef 2251)
  br label %32

32:                                               ; preds = %30, %26
  br label %33

33:                                               ; preds = %32, %25
  store ptr null, ptr %17, align 8
  store ptr null, ptr %18, align 8
  %34 = getelementptr inbounds %class.dtNavMeshQuery, ptr %21, i32 0, i32 0
  %35 = load ptr, ptr %34, align 8
  %36 = load i32, ptr %10, align 4
  %37 = call noundef i32 @_ZNK9dtNavMesh19getTileAndPolyByRefEjPPK10dtMeshTilePPK6dtPoly(ptr noundef nonnull align 8 dereferenceable(100) %35, i32 noundef %36, ptr noundef %17, ptr noundef %18)
  %38 = call noundef zeroext i1 @_Z14dtStatusFailedj(i32 noundef %37)
  br i1 %38, label %39, label %40

39:                                               ; preds = %33
  store i32 -2147483640, ptr %8, align 4
  br label %63

40:                                               ; preds = %33
  %41 = load ptr, ptr %18, align 8
  %42 = call noundef zeroext i8 @_ZNK6dtPoly7getTypeEv(ptr noundef nonnull align 4 dereferenceable(32) %41)
  %43 = load ptr, ptr %14, align 8
  store i8 %42, ptr %43, align 1
  store ptr null, ptr %19, align 8
  store ptr null, ptr %20, align 8
  %44 = getelementptr inbounds %class.dtNavMeshQuery, ptr %21, i32 0, i32 0
  %45 = load ptr, ptr %44, align 8
  %46 = load i32, ptr %11, align 4
  %47 = call noundef i32 @_ZNK9dtNavMesh19getTileAndPolyByRefEjPPK10dtMeshTilePPK6dtPoly(ptr noundef nonnull align 8 dereferenceable(100) %45, i32 noundef %46, ptr noundef %19, ptr noundef %20)
  %48 = call noundef zeroext i1 @_Z14dtStatusFailedj(i32 noundef %47)
  br i1 %48, label %49, label %50

49:                                               ; preds = %40
  store i32 -2147483640, ptr %8, align 4
  br label %63

50:                                               ; preds = %40
  %51 = load ptr, ptr %20, align 8
  %52 = call noundef zeroext i8 @_ZNK6dtPoly7getTypeEv(ptr noundef nonnull align 4 dereferenceable(32) %51)
  %53 = load ptr, ptr %15, align 8
  store i8 %52, ptr %53, align 1
  %54 = load i32, ptr %10, align 4
  %55 = load ptr, ptr %18, align 8
  %56 = load ptr, ptr %17, align 8
  %57 = load i32, ptr %11, align 4
  %58 = load ptr, ptr %20, align 8
  %59 = load ptr, ptr %19, align 8
  %60 = load ptr, ptr %12, align 8
  %61 = load ptr, ptr %13, align 8
  %62 = call noundef i32 @_ZNK14dtNavMeshQuery15getPortalPointsEjPK6dtPolyPK10dtMeshTilejS2_S5_PfS6_(ptr noundef nonnull align 8 dereferenceable(104) %21, i32 noundef %54, ptr noundef %55, ptr noundef %56, i32 noundef %57, ptr noundef %58, ptr noundef %59, ptr noundef %60, ptr noundef %61)
  store i32 %62, ptr %8, align 4
  br label %63

63:                                               ; preds = %50, %49, %39
  %64 = load i32, ptr %8, align 4
  ret i32 %64
}