; Function Attrs: mustprogress uwtable
define noundef i32 @_ZNK14dtNavMeshQuery15getPortalPointsEjjPfS0_RhS1_(ptr nocapture noundef nonnull readonly align 8 dereferenceable(104) %0, i32 noundef %1, i32 noundef %2, ptr nocapture noundef writeonly %3, ptr nocapture noundef writeonly %4, ptr nocapture noundef nonnull writeonly align 1 dereferenceable(1) %5, ptr nocapture noundef nonnull writeonly align 1 dereferenceable(1) %6) local_unnamed_addr #1 align 2 {
  %8 = alloca ptr, align 8
  %9 = alloca ptr, align 8
  %10 = alloca ptr, align 8
  %11 = alloca ptr, align 8
  %12 = tail call noundef ptr @_Z21dtAssertFailGetCustomv()
  %13 = icmp ne ptr %12, null
  %14 = load ptr, ptr %0, align 8
  %.not = icmp eq ptr %14, null
  %or.cond = select i1 %13, i1 %.not, i1 false
  br i1 %or.cond, label %15, label %16

15:                                               ; preds = %7
  tail call void %12(ptr noundef nonnull @.str, ptr noundef nonnull @.str.1, i32 noundef 2251)
  %.pre = load ptr, ptr %0, align 8
  br label %16

16:                                               ; preds = %15, %7
  %17 = phi ptr [ %.pre, %15 ], [ %14, %7 ]
  store ptr null, ptr %8, align 8
  store ptr null, ptr %9, align 8
  %18 = call noundef i32 @_ZNK9dtNavMesh19getTileAndPolyByRefEjPPK10dtMeshTilePPK6dtPoly(ptr noundef nonnull align 8 dereferenceable(100) %17, i32 noundef %1, ptr noundef nonnull %8, ptr noundef nonnull %9)
  %19 = icmp slt i32 %18, 0
  br i1 %19, label %37, label %20

20:                                               ; preds = %16
  %21 = load ptr, ptr %9, align 8
  %22 = getelementptr inbounds i8, ptr %21, i64 31
  %23 = load i8, ptr %22, align 1
  %24 = lshr i8 %23, 6
  store i8 %24, ptr %5, align 1
  store ptr null, ptr %10, align 8
  store ptr null, ptr %11, align 8
  %25 = load ptr, ptr %0, align 8
  %26 = call noundef i32 @_ZNK9dtNavMesh19getTileAndPolyByRefEjPPK10dtMeshTilePPK6dtPoly(ptr noundef nonnull align 8 dereferenceable(100) %25, i32 noundef %2, ptr noundef nonnull %10, ptr noundef nonnull %11)
  %27 = icmp slt i32 %26, 0
  br i1 %27, label %37, label %28

28:                                               ; preds = %20
  %29 = load ptr, ptr %11, align 8
  %30 = getelementptr inbounds i8, ptr %29, i64 31
  %31 = load i8, ptr %30, align 1
  %32 = lshr i8 %31, 6
  store i8 %32, ptr %6, align 1
  %33 = load ptr, ptr %9, align 8
  %34 = load ptr, ptr %8, align 8
  %35 = load ptr, ptr %10, align 8
  %36 = call noundef i32 @_ZNK14dtNavMeshQuery15getPortalPointsEjPK6dtPolyPK10dtMeshTilejS2_S5_PfS6_(ptr nonnull align 8 poison, i32 noundef %1, ptr noundef %33, ptr noundef %34, i32 noundef %2, ptr noundef %29, ptr noundef %35, ptr noundef %3, ptr noundef %4), !range !12
  br label %37

37:                                               ; preds = %20, %16, %28
  %.0 = phi i32 [ %36, %28 ], [ -2147483640, %16 ], [ -2147483640, %20 ]
  ret i32 %.0
}